; Function Attrs: nofree nounwind memory(readwrite, argmem: read) uwtable
define noalias noundef ptr @Abc_NtkGetCiArrivalFloats(ptr noundef readonly captures(none) %0) local_unnamed_addr #12 {
  %2 = getelementptr i8, ptr %0, i64 56
  %.val13 = load ptr, ptr %2, align 8
  %3 = getelementptr i8, ptr %.val13, i64 4
  %.val13.val = load i32, ptr %3, align 4
  %4 = sext i32 %.val13.val to i64
  %5 = tail call noalias ptr @calloc(i64 noundef %4, i64 noundef 4) #21
  %6 = getelementptr inbounds nuw i8, ptr %0, i64 264
  %7 = load ptr, ptr %6, align 8
  %8 = icmp ne ptr %7, null
  %9 = icmp sgt i32 %.val13.val, 0
  %or.cond = and i1 %8, %9
  br i1 %or.cond, label %.lr.ph, label %.critedge

.lr.ph:                                           ; preds = %1
  %10 = getelementptr i8, ptr %.val13, i64 8
  %.val14.val = load ptr, ptr %10, align 8
  %wide.trip.count = zext nneg i32 %.val13.val to i64
  br label %11

11:                                               ; preds = %.lr.ph, %11
  %indvars.iv = phi i64 [ 0, %.lr.ph ], [ %indvars.iv.next, %11 ]
  %12 = getelementptr inbounds nuw ptr, ptr %.val14.val, i64 %indvars.iv
  %13 = load ptr, ptr %12, align 8
  %.val3.i = load ptr, ptr %13, align 8
  %14 = getelementptr i8, ptr %13, i64 16
  %.val4.i = load i32, ptr %14, align 8
  %15 = getelementptr i8, ptr %.val3.i, i64 264
  %.val3.val.i = load ptr, ptr %15, align 8
  %16 = getelementptr i8, ptr %.val3.val.i, i64 16
  %.val3.val.val.i = load ptr, ptr %16, align 8
  %17 = getelementptr i8, ptr %.val3.val.val.i, i64 8
  %.val3.val.val.val.i = load ptr, ptr %17, align 8
  %18 = sext i32 %.val4.i to i64
  %19 = getelementptr inbounds ptr, ptr %.val3.val.val.val.i, i64 %18
  %20 = load ptr, ptr %19, align 8
  %21 = load float, ptr %20, align 4
  %22 = getelementptr inbounds nuw i8, ptr %20, i64 4
  %23 = load float, ptr %22, align 4
  %24 = fcmp ogt float %21, %23
  %25 = select i1 %24, float %21, float %23
  %26 = getelementptr inbounds nuw float, ptr %5, i64 %indvars.iv
  store float %25, ptr %26, align 4
  %indvars.iv.next = add nuw nsw i64 %indvars.iv, 1
  %exitcond.not = icmp eq i64 %indvars.iv.next, %wide.trip.count
  br i1 %exitcond.not, label %.critedge, label %11, !llvm.loop !32

.critedge:                                        ; preds = %11, %1
  ret ptr %5
}